target datalayout = "e-m:e-p270:32:32-p271:32:32-p272:64:64-i64:64-i128:128-f80:128-n8:16:32:64-S128"
target triple = "x86_64-pc-linux-gnu"

%"class.pybind11::object" = type { %"class.pybind11::handle" }
%"class.pybind11::handle" = type { ptr }
%"class.pybind11::module_" = type { %"class.pybind11::object" }
%"class.pybind11::class_" = type { %"class.pybind11::detail::generic_type" }
%"class.pybind11::detail::generic_type" = type { %"class.pybind11::object" }
%"struct.pybind11::detail::initimpl::constructor" = type { i8 }
%"class.pybind11::cpp_function" = type { %"class.pybind11::function" }
%"class.pybind11::function" = type { %"class.pybind11::object" }
%"struct.pybind11::is_setter" = type { i8 }
%class.anon.492 = type { i8 }
%"struct.pybind11::detail::is_new_style_constructor" = type { i8 }

@.str = private unnamed_addr constant [19 x i8] c"exercise_is_setter\00", align 1
@.str.2 = private unnamed_addr constant [6 x i8] c"Field\00", align 1
@.str.3 = private unnamed_addr constant [10 x i8] c"int_value\00", align 1
@.str.153 = private unnamed_addr constant [9 x i8] c"__init__\00", align 1

; Function Attrs: mustprogress nounwind uwtable
define linkonce_odr hidden { i64, i64 } @_ZN8pybind1114method_adaptorIN14pybind11_tests18exercise_is_setter5FieldERNS2_9FieldBaseES4_JiEEEMT_FT0_DpT2_EMT1_FS7_S9_E(i64 %0, i64 %1) #0 comdat {
  %3 = alloca { i64, i64 }, align 8
  %4 = alloca { i64, i64 }, align 8
  %5 = getelementptr inbounds { i64, i64 }, ptr %3, i32 0, i32 0
  store i64 %0, ptr %5, align 8
  %6 = getelementptr inbounds { i64, i64 }, ptr %3, i32 0, i32 1
  store i64 %1, ptr %6, align 8
  %7 = load { i64, i64 }, ptr %3, align 8
  store { i64, i64 } %7, ptr %4, align 8
  %8 = load { i64, i64 }, ptr %4, align 8
  ret { i64, i64 } %8
}

; Function Attrs: mustprogress uwtable
define linkonce_odr hidden void @_ZN8pybind116detail8initimpl11constructorIJEE7executeINS_6class_IN14pybind11_tests18exercise_is_setter5FieldEJEEEJETnNSt9enable_ifIXntsrT_9has_aliasEiE4typeELi0EEEvRSB_DpRKT0_(ptr noundef nonnull align 8 dereferenceable(8) %0) #1 comdat align 2 {
  %2 = alloca ptr, align 8
  %3 = alloca %class.anon.492, align 1
  %4 = alloca %"struct.pybind11::detail::is_new_style_constructor", align 1
  store ptr %0, ptr %2, align 8
  %5 = load ptr, ptr %2, align 8
  %6 = call noundef nonnull align 8 dereferenceable(8) ptr @_ZN8pybind116class_IN14pybind11_tests18exercise_is_setter5FieldEJEE3defIZNS_6detail8initimpl11constructorIJEE7executeIS4_JETnNSt9enable_ifIXntsrT_9has_aliasEiE4typeELi0EEEvRSC_DpRKT0_EUlRNS6_16value_and_holderEE_JNS6_24is_new_style_constructorEEEERS4_PKcOSC_SJ_(ptr noundef nonnull align 8 dereferenceable(8) %5, ptr noundef @.str.153, ptr noundef nonnull align 1 dereferenceable(1) %3, ptr noundef nonnull align 1 dereferenceable(1) %4)
  ret void
}

; Function Attrs: mustprogress uwtable
define linkonce_odr hidden noundef nonnull align 8 dereferenceable(8) ptr @_ZN8pybind116class_IN14pybind11_tests18exercise_is_setter5FieldEJEE12def_propertyIMNS2_9FieldBaseEKFivEMS6_FRS6_iEJEEERS4_PKcRKT_RKT0_DpRKT1_(ptr noundef nonnull align 8 dereferenceable(8) %0, ptr noundef %1, ptr noundef nonnull align 8 dereferenceable(16) %2, ptr noundef nonnull align 8 dereferenceable(16) %3) #1 comdat align 2 personality ptr @__gxx_personality_v0 {
  %5 = alloca ptr, align 8
  %6 = alloca ptr, align 8
  %7 = alloca ptr, align 8
  %8 = alloca ptr, align 8
  %9 = alloca %"class.pybind11::cpp_function", align 8
  %10 = alloca { i64, i64 }, align 8
  %11 = alloca %"struct.pybind11::is_setter", align 1
  %12 = alloca { i64, i64 }, align 8
  %13 = alloca ptr, align 8
  %14 = alloca i32, align 4
  store ptr %0, ptr %5, align 8
  store ptr %1, ptr %6, align 8
  store ptr %2, ptr %7, align 8
  store ptr %3, ptr %8, align 8
  %15 = load ptr, ptr %5, align 8
  %16 = load ptr, ptr %6, align 8
  %17 = load ptr, ptr %7, align 8
  %18 = load ptr, ptr %8, align 8
  %19 = load { i64, i64 }, ptr %18, align 8
  store { i64, i64 } %19, ptr %10, align 8
  %20 = getelementptr inbounds { i64, i64 }, ptr %10, i32 0, i32 0
  %21 = load i64, ptr %20, align 8
  %22 = getelementptr inbounds { i64, i64 }, ptr %10, i32 0, i32 1
  %23 = load i64, ptr %22, align 8
  %24 = call { i64, i64 } @_ZN8pybind1114method_adaptorIN14pybind11_tests18exercise_is_setter5FieldERNS2_9FieldBaseES4_JiEEEMT_FT0_DpT2_EMT1_FS7_S9_E(i64 %21, i64 %23)
  store { i64, i64 } %24, ptr %12, align 8
  %25 = getelementptr inbounds { i64, i64 }, ptr %12, i32 0, i32 0
  %26 = load i64, ptr %25, align 8
  %27 = getelementptr inbounds { i64, i64 }, ptr %12, i32 0, i32 1
  %28 = load i64, ptr %27, align 8
  call void @_ZN8pybind1112cpp_functionC2IRN14pybind11_tests18exercise_is_setter9FieldBaseENS3_5FieldEJiEJNS_9is_setterEEEEMT0_FT_DpT1_EDpRKT2_(ptr noundef nonnull align 8 dereferenceable(8) %9, i64 %26, i64 %28, ptr noundef nonnull align 1 dereferenceable(1) %11)
  %29 = invoke noundef nonnull align 8 dereferenceable(8) ptr @_ZN8pybind116class_IN14pybind11_tests18exercise_is_setter5FieldEJEE12def_propertyIMNS2_9FieldBaseEKFivEJEEERS4_PKcRKT_RKNS_12cpp_functionEDpRKT0_(ptr noundef nonnull align 8 dereferenceable(8) %15, ptr noundef %16, ptr noundef nonnull align 8 dereferenceable(16) %17, ptr noundef nonnull align 8 dereferenceable(8) %9)
          to label %30 unwind label %31

30:                                               ; preds = %4
  call void @_ZN8pybind1112cpp_functionD2Ev(ptr noundef nonnull align 8 dereferenceable(8) %9) #16
  ret ptr %29

31:                                               ; preds = %4
  %32 = landingpad { ptr, i32 }
          cleanup
  %33 = extractvalue { ptr, i32 } %32, 0
  store ptr %33, ptr %13, align 8
  %34 = extractvalue { ptr, i32 } %32, 1
  store i32 %34, ptr %14, align 4
  call void @_ZN8pybind1112cpp_functionD2Ev(ptr noundef nonnull align 8 dereferenceable(8) %9) #16
  br label %35

35:                                               ; preds = %31
  %36 = load ptr, ptr %13, align 8
  %37 = load i32, ptr %14, align 4
  %38 = insertvalue { ptr, i32 } poison, ptr %36, 0
  %39 = insertvalue { ptr, i32 } %38, i32 %37, 1
  resume { ptr, i32 } %39
}

; Function Attrs: mustprogress uwtable
define linkonce_odr hidden noundef nonnull align 8 dereferenceable(8) ptr @_ZN8pybind116class_IN14pybind11_tests18exercise_is_setter5FieldEJEE3defIJEJEEERS4_RKNS_6detail8initimpl11constructorIJDpT_EEEDpRKT0_(ptr noundef nonnull align 8 dereferenceable(8) %0, ptr noundef nonnull align 1 dereferenceable(1) %1) #1 comdat align 2 {
  %3 = alloca ptr, align 8
  %4 = alloca ptr, align 8
  store ptr %0, ptr %3, align 8
  store ptr %1, ptr %4, align 8
  %5 = load ptr, ptr %3, align 8
  call void @_ZN8pybind116detail8initimpl11constructorIJEE7executeINS_6class_IN14pybind11_tests18exercise_is_setter5FieldEJEEEJETnNSt9enable_ifIXntsrT_9has_aliasEiE4typeELi0EEEvRSB_DpRKT0_(ptr noundef nonnull align 8 dereferenceable(8) %5)
  ret ptr %5
}

; Function Attrs: mustprogress nounwind uwtable
define linkonce_odr hidden void @_ZN8pybind114initIJEEENS_6detail8initimpl11constructorIJDpT_EEEv() #0 comdat {
  ret void
}

; Function Attrs: mustprogress uwtable
define hidden void @_ZN14pybind11_tests18exercise_is_setter12add_bindingsERN8pybind117module_E(ptr noundef nonnull align 8 dereferenceable(8) %0) #1 personality ptr @__gxx_personality_v0 {
  %2 = alloca ptr, align 8
  %3 = alloca %"class.pybind11::module_", align 8
  %4 = alloca %"class.pybind11::class_", align 8
  %5 = alloca %"class.pybind11::handle", align 8
  %6 = alloca ptr, align 8
  %7 = alloca i32, align 4
  %8 = alloca %"struct.pybind11::detail::initimpl::constructor", align 1
  %9 = alloca { i64, i64 }, align 8
  %10 = alloca { i64, i64 }, align 8
  store ptr %0, ptr %2, align 8
  %11 = load ptr, ptr %2, align 8
  call void @_ZN8pybind117module_13def_submoduleEPKcS2_(ptr dead_on_unwind writable sret(%"class.pybind11::module_") align 8 %3, ptr noundef nonnull align 8 dereferenceable(8) %11, ptr noundef @.str, ptr noundef null)
  call void @llvm.memcpy.p0.p0.i64(ptr align 8 %5, ptr align 8 %3, i64 8, i1 false)
  %12 = getelementptr inbounds %"class.pybind11::handle", ptr %5, i32 0, i32 0
  %13 = load ptr, ptr %12, align 8
  invoke void @_ZN8pybind116class_IN14pybind11_tests18exercise_is_setter5FieldEJEEC2IJEEENS_6handleEPKcDpRKT_(ptr noundef nonnull align 8 dereferenceable(8) %4, ptr %13, ptr noundef @.str.2)
          to label %14 unwind label %20

14:                                               ; preds = %1
  invoke void @_ZN8pybind114initIJEEENS_6detail8initimpl11constructorIJDpT_EEEv()
          to label %15 unwind label %24

15:                                               ; preds = %14
  %16 = invoke noundef nonnull align 8 dereferenceable(8) ptr @_ZN8pybind116class_IN14pybind11_tests18exercise_is_setter5FieldEJEE3defIJEJEEERS4_RKNS_6detail8initimpl11constructorIJDpT_EEEDpRKT0_(ptr noundef nonnull align 8 dereferenceable(8) %4, ptr noundef nonnull align 1 dereferenceable(1) %8)
          to label %17 unwind label %24

17:                                               ; preds = %15
  store { i64, i64 } { i64 ptrtoint (ptr @_ZNK14pybind11_tests18exercise_is_setter9FieldBase9int_valueEv to i64), i64 0 }, ptr %9, align 8
  store { i64, i64 } { i64 ptrtoint (ptr @_ZN14pybind11_tests18exercise_is_setter9FieldBase11SetIntValueEi to i64), i64 0 }, ptr %10, align 8
  %18 = invoke noundef nonnull align 8 dereferenceable(8) ptr @_ZN8pybind116class_IN14pybind11_tests18exercise_is_setter5FieldEJEE12def_propertyIMNS2_9FieldBaseEKFivEMS6_FRS6_iEJEEERS4_PKcRKT_RKT0_DpRKT1_(ptr noundef nonnull align 8 dereferenceable(8) %16, ptr noundef @.str.3, ptr noundef nonnull align 8 dereferenceable(16) %9, ptr noundef nonnull align 8 dereferenceable(16) %10)
          to label %19 unwind label %24

19:                                               ; preds = %17
  call void @_ZN8pybind116class_IN14pybind11_tests18exercise_is_setter5FieldEJEED2Ev(ptr noundef nonnull align 8 dereferenceable(8) %4) #16
  call void @_ZN8pybind117module_D2Ev(ptr noundef nonnull align 8 dereferenceable(8) %3) #16
  ret void

20:                                               ; preds = %1
  %21 = landingpad { ptr, i32 }
          cleanup
  %22 = extractvalue { ptr, i32 } %21, 0
  store ptr %22, ptr %6, align 8
  %23 = extractvalue { ptr, i32 } %21, 1
  store i32 %23, ptr %7, align 4
  br label %28

24:                                               ; preds = %17, %15, %14
  %25 = landingpad { ptr, i32 }
          cleanup
  %26 = extractvalue { ptr, i32 } %25, 0
  store ptr %26, ptr %6, align 8
  %27 = extractvalue { ptr, i32 } %25, 1
  store i32 %27, ptr %7, align 4
  call void @_ZN8pybind116class_IN14pybind11_tests18exercise_is_setter5FieldEJEED2Ev(ptr noundef nonnull align 8 dereferenceable(8) %4) #16
  br label %28

28:                                               ; preds = %24, %20
  call void @_ZN8pybind117module_D2Ev(ptr noundef nonnull align 8 dereferenceable(8) %3) #16
  br label %29

29:                                               ; preds = %28
  %30 = load ptr, ptr %6, align 8
  %31 = load i32, ptr %7, align 4
  %32 = insertvalue { ptr, i32 } poison, ptr %30, 0
  %33 = insertvalue { ptr, i32 } %32, i32 %31, 1
  resume { ptr, i32 } %33
}