; Function Attrs: mustprogress uwtable
define hidden void @_ZN14pybind11_tests18exercise_is_setter12add_bindingsERN8pybind117module_E(ptr noundef nonnull align 8 dereferenceable(8) %0) local_unnamed_addr #1 personality ptr @__gxx_personality_v0 {
  %2 = alloca %"class.pybind11::cpp_function", align 8
  %3 = alloca %"struct.pybind11::is_setter", align 1
  %4 = alloca %class.anon.492, align 1
  %5 = alloca %"struct.pybind11::detail::is_new_style_constructor", align 1
  %6 = alloca %"class.pybind11::module_", align 8
  %7 = alloca %"class.pybind11::class_", align 8
  %8 = alloca { i64, i64 }, align 8
  call void @_ZN8pybind117module_13def_submoduleEPKcS2_(ptr dead_on_unwind nonnull writable sret(%"class.pybind11::module_") align 8 %6, ptr noundef nonnull align 8 dereferenceable(8) %0, ptr noundef nonnull @.str, ptr noundef null)
  %.sroa.0.0.copyload = load ptr, ptr %6, align 8
  invoke void @_ZN8pybind116class_IN14pybind11_tests18exercise_is_setter5FieldEJEEC2IJEEENS_6handleEPKcDpRKT_(ptr noundef nonnull align 8 dereferenceable(8) %7, ptr %.sroa.0.0.copyload, ptr noundef nonnull @.str.2)
          to label %9 unwind label %41

9:                                                ; preds = %1
  call void @llvm.lifetime.start.p0(i64 1, ptr nonnull %4)
  call void @llvm.lifetime.start.p0(i64 1, ptr nonnull %5)
  %10 = invoke noundef nonnull align 8 dereferenceable(8) ptr @_ZN8pybind116class_IN14pybind11_tests18exercise_is_setter5FieldEJEE3defIZNS_6detail8initimpl11constructorIJEE7executeIS4_JETnNSt9enable_ifIXntsrT_9has_aliasEiE4typeELi0EEEvRSC_DpRKT0_EUlRNS6_16value_and_holderEE_JNS6_24is_new_style_constructorEEEERS4_PKcOSC_SJ_(ptr noundef nonnull align 8 dereferenceable(8) %7, ptr noundef nonnull @.str.153, ptr noundef nonnull align 1 dereferenceable(1) %4, ptr noundef nonnull align 1 dereferenceable(1) %5)
          to label %11 unwind label %43

11:                                               ; preds = %9
  call void @llvm.lifetime.end.p0(i64 1, ptr nonnull %4)
  call void @llvm.lifetime.end.p0(i64 1, ptr nonnull %5)
  store i64 ptrtoint (ptr @_ZNK14pybind11_tests18exercise_is_setter9FieldBase9int_valueEv to i64), ptr %8, align 8
  %.fca.1.gep2 = getelementptr inbounds i8, ptr %8, i64 8
  store i64 0, ptr %.fca.1.gep2, align 8
  call void @llvm.lifetime.start.p0(i64 8, ptr nonnull %2)
  call void @llvm.lifetime.start.p0(i64 1, ptr nonnull %3)
  invoke void @_ZN8pybind1112cpp_functionC2IRN14pybind11_tests18exercise_is_setter9FieldBaseENS3_5FieldEJiEJNS_9is_setterEEEEMT0_FT_DpT1_EDpRKT2_(ptr noundef nonnull align 8 dereferenceable(8) %2, i64 ptrtoint (ptr @_ZN14pybind11_tests18exercise_is_setter9FieldBase11SetIntValueEi to i64), i64 0, ptr noundef nonnull align 1 dereferenceable(1) %3)
          to label %.noexc unwind label %43

.noexc:                                           ; preds = %11
  %12 = invoke noundef nonnull align 8 dereferenceable(8) ptr @_ZN8pybind116class_IN14pybind11_tests18exercise_is_setter5FieldEJEE12def_propertyIMNS2_9FieldBaseEKFivEJEEERS4_PKcRKT_RKNS_12cpp_functionEDpRKT0_(ptr noundef nonnull align 8 dereferenceable(8) %7, ptr noundef nonnull @.str.3, ptr noundef nonnull align 8 dereferenceable(16) %8, ptr noundef nonnull align 8 dereferenceable(8) %2)
          to label %13 unwind label %22

13:                                               ; preds = %.noexc
  %14 = load ptr, ptr %2, align 8
  %.not.i.i.i.i.i.i = icmp eq ptr %14, null
  br i1 %.not.i.i.i.i.i.i, label %24, label %15

15:                                               ; preds = %13
  %16 = load i64, ptr %14, align 8
  %17 = add nsw i64 %16, -1
  store i64 %17, ptr %14, align 8
  %.not.i.i.i.i.i.i.i = icmp eq i64 %17, 0
  br i1 %.not.i.i.i.i.i.i.i, label %18, label %24

18:                                               ; preds = %15
  invoke void @_Py_Dealloc(ptr noundef nonnull %14)
          to label %24 unwind label %19

19:                                               ; preds = %18
  %20 = landingpad { ptr, i32 }
          catch ptr null
  %21 = extractvalue { ptr, i32 } %20, 0
  call void @__clang_call_terminate(ptr %21) #27
  unreachable

22:                                               ; preds = %.noexc
  %23 = landingpad { ptr, i32 }
          cleanup
  call void @_ZN8pybind1112cpp_functionD2Ev(ptr noundef nonnull align 8 dereferenceable(8) %2) #26
  br label %.body

24:                                               ; preds = %18, %15, %13
  call void @llvm.lifetime.end.p0(i64 8, ptr nonnull %2)
  call void @llvm.lifetime.end.p0(i64 1, ptr nonnull %3)
  %25 = load ptr, ptr %7, align 8
  %.not.i.i.i.i.i = icmp eq ptr %25, null
  br i1 %.not.i.i.i.i.i, label %_ZN8pybind116class_IN14pybind11_tests18exercise_is_setter5FieldEJEED2Ev.exit, label %26

26:                                               ; preds = %24
  %27 = load i64, ptr %25, align 8
  %28 = add nsw i64 %27, -1
  store i64 %28, ptr %25, align 8
  %.not.i.i.i.i.i.i6 = icmp eq i64 %28, 0
  br i1 %.not.i.i.i.i.i.i6, label %29, label %_ZN8pybind116class_IN14pybind11_tests18exercise_is_setter5FieldEJEED2Ev.exit

29:                                               ; preds = %26
  invoke void @_Py_Dealloc(ptr noundef nonnull %25)
          to label %_ZN8pybind116class_IN14pybind11_tests18exercise_is_setter5FieldEJEED2Ev.exit unwind label %30

30:                                               ; preds = %29
  %31 = landingpad { ptr, i32 }
          catch ptr null
  %32 = extractvalue { ptr, i32 } %31, 0
  call void @__clang_call_terminate(ptr %32) #27
  unreachable

_ZN8pybind116class_IN14pybind11_tests18exercise_is_setter5FieldEJEED2Ev.exit: ; preds = %24, %26, %29
  %33 = load ptr, ptr %6, align 8
  %.not.i.i.i.i = icmp eq ptr %33, null
  br i1 %.not.i.i.i.i, label %_ZN8pybind117module_D2Ev.exit, label %34

34:                                               ; preds = %_ZN8pybind116class_IN14pybind11_tests18exercise_is_setter5FieldEJEED2Ev.exit
  %35 = load i64, ptr %33, align 8
  %36 = add nsw i64 %35, -1
  store i64 %36, ptr %33, align 8
  %.not.i.i.i.i.i7 = icmp eq i64 %36, 0
  br i1 %.not.i.i.i.i.i7, label %37, label %_ZN8pybind117module_D2Ev.exit

37:                                               ; preds = %34
  invoke void @_Py_Dealloc(ptr noundef nonnull %33)
          to label %_ZN8pybind117module_D2Ev.exit unwind label %38

38:                                               ; preds = %37
  %39 = landingpad { ptr, i32 }
          catch ptr null
  %40 = extractvalue { ptr, i32 } %39, 0
  call void @__clang_call_terminate(ptr %40) #27
  unreachable

_ZN8pybind117module_D2Ev.exit:                    ; preds = %_ZN8pybind116class_IN14pybind11_tests18exercise_is_setter5FieldEJEED2Ev.exit, %34, %37
  ret void

41:                                               ; preds = %1
  %42 = landingpad { ptr, i32 }
          cleanup
  br label %45

43:                                               ; preds = %11, %9
  %44 = landingpad { ptr, i32 }
          cleanup
  br label %.body

.body:                                            ; preds = %22, %43
  %eh.lpad-body = phi { ptr, i32 } [ %44, %43 ], [ %23, %22 ]
  call void @_ZN8pybind116class_IN14pybind11_tests18exercise_is_setter5FieldEJEED2Ev(ptr noundef nonnull align 8 dereferenceable(8) %7) #26
  br label %45

45:                                               ; preds = %.body, %41
  %.pn = phi { ptr, i32 } [ %eh.lpad-body, %.body ], [ %42, %41 ]
  call void @_ZN8pybind117module_D2Ev(ptr noundef nonnull align 8 dereferenceable(8) %6) #26
  resume { ptr, i32 } %.pn
}